target datalayout = "e-m:e-p270:32:32-p271:32:32-p272:64:64-i64:64-i128:128-f80:128-n8:16:32:64-S128"
target triple = "x86_64-pc-linux-gnu"

%union.pthread_mutex_t = type { %struct.__pthread_mutex_s }
%struct.__pthread_mutex_s = type { i32, i32, i32, i32, i32, i16, i16, %struct.__pthread_internal_list }
%struct.__pthread_internal_list = type { ptr, ptr }
%struct.___itt_global = type { [8 x i8], i64, i64, i64, i64, i64, i64, %union.pthread_mutex_t, ptr, ptr, ptr, ptr, ptr, ptr, ptr, ptr, i32, ptr, i32, ptr, ptr }

@__itt_notify_sync_name_ptr__3_0 = hidden global ptr @__itt_notify_sync_name_init_3_0, align 8
@__itt_init_ittlib_ptr = internal global ptr @__itt_init_ittlib, align 8

; Function Attrs: nounwind uwtable
define internal i32 @__itt_notify_sync_name_init_3_0(ptr noundef %0, ptr noundef %1, i32 noundef %2, ptr noundef %3, i32 noundef %4, i32 noundef %5) #0 {
  %7 = alloca i32, align 4
  %8 = alloca ptr, align 8
  %9 = alloca ptr, align 8
  %10 = alloca i32, align 4
  %11 = alloca ptr, align 8
  %12 = alloca i32, align 4
  %13 = alloca i32, align 4
  store ptr %0, ptr %8, align 8, !tbaa !21
  store ptr %1, ptr %9, align 8, !tbaa !22
  store i32 %2, ptr %10, align 4, !tbaa !24
  store ptr %3, ptr %11, align 8, !tbaa !22
  store i32 %4, ptr %12, align 4, !tbaa !24
  store i32 %5, ptr %13, align 4, !tbaa !24
  %14 = load volatile i64, ptr getelementptr inbounds nuw (%struct.___itt_global, ptr @__itt__ittapi_global, i32 0, i32 4), align 8, !tbaa !3
  %15 = icmp ne i64 %14, 0
  br i1 %15, label %22, label %16

16:                                               ; preds = %6
  %17 = load ptr, ptr getelementptr inbounds nuw (%struct.___itt_global, ptr @__itt__ittapi_global, i32 0, i32 13), align 8, !tbaa !20
  %18 = icmp eq ptr %17, null
  br i1 %18, label %19, label %22

19:                                               ; preds = %16
  %20 = load ptr, ptr @__itt_init_ittlib_ptr, align 8, !tbaa !21
  %21 = call i32 %20(ptr noundef null, i32 noundef -1)
  br label %22

22:                                               ; preds = %19, %16, %6
  %23 = load ptr, ptr @__itt_notify_sync_name_ptr__3_0, align 8, !tbaa !21
  %24 = icmp ne ptr %23, null
  br i1 %24, label %25, label %37

25:                                               ; preds = %22
  %26 = load ptr, ptr @__itt_notify_sync_name_ptr__3_0, align 8, !tbaa !21
  %27 = icmp ne ptr %26, @__itt_notify_sync_name_init_3_0
  br i1 %27, label %28, label %37

28:                                               ; preds = %25
  %29 = load ptr, ptr @__itt_notify_sync_name_ptr__3_0, align 8, !tbaa !21
  %30 = load ptr, ptr %8, align 8, !tbaa !21
  %31 = load ptr, ptr %9, align 8, !tbaa !22
  %32 = load i32, ptr %10, align 4, !tbaa !24
  %33 = load ptr, ptr %11, align 8, !tbaa !22
  %34 = load i32, ptr %12, align 4, !tbaa !24
  %35 = load i32, ptr %13, align 4, !tbaa !24
  %36 = call i32 %29(ptr noundef %30, ptr noundef %31, i32 noundef %32, ptr noundef %33, i32 noundef %34, i32 noundef %35)
  store i32 %36, ptr %7, align 4
  br label %38

37:                                               ; preds = %25, %22
  store i32 0, ptr %7, align 4
  br label %38

38:                                               ; preds = %37, %28
  %39 = load i32, ptr %7, align 4
  ret i32 %39
}